	.arch armv8-a
	.file	"inverse_matrix.c"
	.text
.Ltext0:
	.section	.rodata
	.align	3
.LC0:
	.string	"\nInverse of Entered Matrix is not possible"
	.text
	.align	2
	.global	main
	.type	main, %function
main:
.LFB2:
	.file 1 "inverse_matrix.c"
	.loc 1 12 33
	.cfi_startproc
	sub	sp, sp, #2576
	.cfi_def_cfa_offset 2576
	stp	x29, x30, [sp]
	.cfi_offset 29, -2576
	.cfi_offset 30, -2568
	mov	x29, sp
	str	d8, [sp, 16]
	.cfi_offset 72, -2560
	str	w0, [sp, 44]
	str	x1, [sp, 32]
	.loc 1 17 8
	ldr	w0, [sp, 44]
	cmp	w0, 1
	bgt	.L2
	.loc 1 18 11
	mov	w0, 10
	str	w0, [sp, 2564]
	b	.L3
.L2:
	.loc 1 20 22
	ldr	x0, [sp, 32]
	add	x0, x0, 8
	.loc 1 20 13
	ldr	x0, [x0]
	bl	atoi
	str	w0, [sp, 2564]
.L3:
	.loc 1 21 22
	mov	x0, 0
	bl	time
	.loc 1 21 5
	bl	srand
	.loc 1 23 12
	str	wzr, [sp, 2572]
	.loc 1 23 5
	b	.L4
.L7:
	.loc 1 24 16
	str	wzr, [sp, 2568]
	.loc 1 24 9
	b	.L5
.L6:
	.loc 1 25 25 discriminator 3
	ldr	w1, [sp, 2572]
	ldr	w0, [sp, 2564]
	mul	w1, w1, w0
	.loc 1 25 29 discriminator 3
	ldr	w0, [sp, 2568]
	add	w0, w1, w0
	.loc 1 25 33 discriminator 3
	scvtf	d8, w0
	.loc 1 25 41 discriminator 3
	bl	rand
	.loc 1 25 39 discriminator 3
	scvtf	d0, w0
	.loc 1 25 48 discriminator 3
	mov	x0, 281474972516352
	movk	x0, 0x41df, lsl 48
	fmov	d1, x0
	fdiv	d0, d0, d1
	.loc 1 25 33 discriminator 3
	fadd	d0, d8, d0
	fcvt	s0, d0
	.loc 1 25 21 discriminator 3
	ldrsw	x2, [sp, 2568]
	ldrsw	x1, [sp, 2572]
	mov	x0, x1
	lsl	x0, x0, 1
	add	x0, x0, x1
	lsl	x0, x0, 3
	add	x0, x0, x1
	add	x0, x0, x2
	lsl	x0, x0, 2
	add	x1, sp, 56
	str	s0, [x1, x0]
	.loc 1 24 29 discriminator 3
	ldr	w0, [sp, 2568]
	add	w0, w0, 1
	str	w0, [sp, 2568]
.L5:
	.loc 1 24 9 discriminator 1
	ldr	w1, [sp, 2568]
	ldr	w0, [sp, 2564]
	cmp	w1, w0
	blt	.L6
	.loc 1 23 25 discriminator 2
	ldr	w0, [sp, 2572]
	add	w0, w0, 1
	str	w0, [sp, 2572]
.L4:
	.loc 1 23 5 discriminator 1
	ldr	w1, [sp, 2572]
	ldr	w0, [sp, 2564]
	cmp	w1, w0
	blt	.L7
	.loc 1 30 9
	ldr	s0, [sp, 2564]
	scvtf	s0, s0
	add	x0, sp, 56
	bl	determinant
	str	s0, [sp, 2560]
	.loc 1 31 8
	ldr	s0, [sp, 2560]
	fcmp	s0, #0.0
	bne	.L8
	.loc 1 32 9
	adrp	x0, .LC0
	add	x0, x0, :lo12:.LC0
	bl	puts
	b	.L9
.L8:
	.loc 1 34 9
	ldr	s0, [sp, 2564]
	scvtf	s0, s0
	add	x0, sp, 56
	bl	cofactor
.L9:
	mov	w0, 0
	.loc 1 35 1
	ldp	x29, x30, [sp]
	ldr	d8, [sp, 16]
	add	sp, sp, 2576
	.cfi_restore 72
	.cfi_restore 29
	.cfi_restore 30
	.cfi_def_cfa_offset 0
	ret
	.cfi_endproc
.LFE2:
	.size	main, .-main
	.align	2
	.global	determinant
	.type	determinant, %function
determinant:
.LFB3:
	.loc 1 38 45
	.cfi_startproc
	sub	sp, sp, #2576
	.cfi_def_cfa_offset 2576
	stp	x29, x30, [sp]
	.cfi_offset 29, -2576
	.cfi_offset 30, -2568
	mov	x29, sp
	str	d8, [sp, 16]
	.cfi_offset 72, -2560
	str	x0, [sp, 40]
	str	s0, [sp, 36]
	.loc 1 39 11
	fmov	s0, 1.0e+0
	str	s0, [sp, 2572]
	.loc 1 39 18
	str	wzr, [sp, 2568]
	.loc 1 41 8
	ldr	s1, [sp, 36]
	fmov	s0, 1.0e+0
	fcmp	s1, s0
	bne	.L12
	.loc 1 42 21
	ldr	x0, [sp, 40]
	ldr	s0, [x0]
	b	.L23
.L12:
	.loc 1 44 13
	str	wzr, [sp, 2568]
	.loc 1 45 16
	str	wzr, [sp, 2548]
	.loc 1 45 9
	b	.L14
.L22:
	.loc 1 46 15
	str	wzr, [sp, 2556]
	.loc 1 47 15
	str	wzr, [sp, 2552]
	.loc 1 48 20
	str	wzr, [sp, 2564]
	.loc 1 48 13
	b	.L15
.L21:
	.loc 1 49 24
	str	wzr, [sp, 2560]
	.loc 1 49 17
	b	.L16
.L20:
	.loc 1 50 29
	ldrsw	x2, [sp, 2560]
	ldrsw	x1, [sp, 2564]
	mov	x0, x1
	lsl	x0, x0, 1
	add	x0, x0, x1
	lsl	x0, x0, 3
	add	x0, x0, x1
	add	x0, x0, x2
	lsl	x0, x0, 2
	add	x1, sp, 48
	str	wzr, [x1, x0]
	.loc 1 51 24
	ldr	w0, [sp, 2564]
	cmp	w0, 0
	beq	.L17
	.loc 1 51 32 discriminator 1
	ldr	w1, [sp, 2560]
	ldr	w0, [sp, 2548]
	cmp	w1, w0
	beq	.L17
	.loc 1 52 36
	ldrsw	x1, [sp, 2564]
	mov	x0, x1
	lsl	x0, x0, 1
	add	x0, x0, x1
	lsl	x0, x0, 3
	add	x0, x0, x1
	lsl	x0, x0, 2
	mov	x1, x0
	ldr	x0, [sp, 40]
	add	x0, x0, x1
	.loc 1 52 39
	ldrsw	x1, [sp, 2560]
	ldr	s0, [x0, x1, lsl 2]
	.loc 1 52 33
	ldrsw	x2, [sp, 2552]
	ldrsw	x1, [sp, 2556]
	mov	x0, x1
	lsl	x0, x0, 1
	add	x0, x0, x1
	lsl	x0, x0, 3
	add	x0, x0, x1
	add	x0, x0, x2
	lsl	x0, x0, 2
	add	x1, sp, 48
	str	s0, [x1, x0]
	.loc 1 53 31
	ldr	s0, [sp, 2552]
	scvtf	s1, s0
	.loc 1 53 36
	ldr	s2, [sp, 36]
	fmov	s0, 2.0e+0
	fsub	s0, s2, s0
	.loc 1 53 28
	fcmpe	s1, s0
	bpl	.L25
	.loc 1 54 30
	ldr	w0, [sp, 2552]
	add	w0, w0, 1
	str	w0, [sp, 2552]
	b	.L17
.L25:
	.loc 1 56 31
	str	wzr, [sp, 2552]
	.loc 1 57 30
	ldr	w0, [sp, 2556]
	add	w0, w0, 1
	str	w0, [sp, 2556]
.L17:
	.loc 1 49 37 discriminator 2
	ldr	w0, [sp, 2560]
	add	w0, w0, 1
	str	w0, [sp, 2560]
.L16:
	.loc 1 49 31 discriminator 1
	ldr	s0, [sp, 2560]
	scvtf	s0, s0
	.loc 1 49 17 discriminator 1
	ldr	s1, [sp, 36]
	fcmpe	s1, s0
	bgt	.L20
	.loc 1 48 33 discriminator 2
	ldr	w0, [sp, 2564]
	add	w0, w0, 1
	str	w0, [sp, 2564]
.L15:
	.loc 1 48 27 discriminator 1
	ldr	s0, [sp, 2564]
	scvtf	s0, s0
	.loc 1 48 13 discriminator 1
	ldr	s1, [sp, 36]
	fcmpe	s1, s0
	bgt	.L21
	.loc 1 62 34 discriminator 2
	ldr	x0, [sp, 40]
	ldrsw	x1, [sp, 2548]
	ldr	s8, [x0, x1, lsl 2]
	.loc 1 62 40 discriminator 2
	ldr	s1, [sp, 36]
	fmov	s0, 1.0e+0
	fsub	s0, s1, s0
	add	x0, sp, 48
	bl	determinant
	.loc 1 62 38 discriminator 2
	fmul	s1, s8, s0
	.loc 1 62 27 discriminator 2
	ldr	s0, [sp, 2572]
	fmul	s0, s1, s0
	.loc 1 62 17 discriminator 2
	ldr	s1, [sp, 2568]
	fadd	s0, s1, s0
	str	s0, [sp, 2568]
	.loc 1 63 15 discriminator 2
	ldr	s0, [sp, 2572]
	fneg	s0, s0
	str	s0, [sp, 2572]
	.loc 1 45 29 discriminator 2
	ldr	w0, [sp, 2548]
	add	w0, w0, 1
	str	w0, [sp, 2548]
.L14:
	.loc 1 45 23 discriminator 1
	ldr	s0, [sp, 2548]
	scvtf	s0, s0
	.loc 1 45 9 discriminator 1
	ldr	s1, [sp, 36]
	fcmpe	s1, s0
	bgt	.L22
	.loc 1 67 12
	ldr	s0, [sp, 2568]
.L23:
	.loc 1 68 1 discriminator 1
	ldp	x29, x30, [sp]
	ldr	d8, [sp, 16]
	add	sp, sp, 2576
	.cfi_restore 72
	.cfi_restore 29
	.cfi_restore 30
	.cfi_def_cfa_offset 0
	ret
	.cfi_endproc
.LFE3:
	.size	determinant, .-determinant
	.align	2
	.global	cofactor
	.type	cofactor, %function
cofactor:
.LFB4:
	.loc 1 70 43
	.cfi_startproc
	mov	x12, 5088
	sub	sp, sp, x12
	.cfi_def_cfa_offset 5088
	stp	x29, x30, [sp]
	.cfi_offset 29, -5088
	.cfi_offset 30, -5080
	mov	x29, sp
	str	d8, [sp, 16]
	.cfi_offset 72, -5072
	str	x0, [sp, 40]
	str	s0, [sp, 36]
	.loc 1 73 12
	str	wzr, [sp, 5080]
	.loc 1 73 5
	b	.L27
.L37:
	.loc 1 74 16
	str	wzr, [sp, 5084]
	.loc 1 74 9
	b	.L28
.L36:
	.loc 1 75 15
	str	wzr, [sp, 5076]
	.loc 1 76 15
	str	wzr, [sp, 5072]
	.loc 1 77 20
	str	wzr, [sp, 5068]
	.loc 1 77 13
	b	.L29
.L35:
	.loc 1 78 24
	str	wzr, [sp, 5064]
	.loc 1 78 17
	b	.L30
.L34:
	.loc 1 79 24
	ldr	w1, [sp, 5068]
	ldr	w0, [sp, 5080]
	cmp	w1, w0
	beq	.L31
	.loc 1 79 32 discriminator 1
	ldr	w1, [sp, 5064]
	ldr	w0, [sp, 5084]
	cmp	w1, w0
	beq	.L31
	.loc 1 80 38
	ldrsw	x1, [sp, 5068]
	mov	x0, x1
	lsl	x0, x0, 1
	add	x0, x0, x1
	lsl	x0, x0, 3
	add	x0, x0, x1
	lsl	x0, x0, 2
	mov	x1, x0
	ldr	x0, [sp, 40]
	add	x0, x0, x1
	.loc 1 80 41
	ldrsw	x1, [sp, 5064]
	ldr	s0, [x0, x1, lsl 2]
	.loc 1 80 33
	ldrsw	x2, [sp, 5072]
	ldrsw	x1, [sp, 5076]
	mov	x0, x1
	lsl	x0, x0, 1
	add	x0, x0, x1
	lsl	x0, x0, 3
	add	x0, x0, x1
	add	x0, x0, x2
	lsl	x0, x0, 2
	add	x1, sp, 2560
	str	s0, [x1, x0]
	.loc 1 81 31
	ldr	s0, [sp, 5072]
	scvtf	s1, s0
	.loc 1 81 36
	ldr	s2, [sp, 36]
	fmov	s0, 2.0e+0
	fsub	s0, s2, s0
	.loc 1 81 28
	fcmpe	s1, s0
	bpl	.L39
	.loc 1 82 30
	ldr	w0, [sp, 5072]
	add	w0, w0, 1
	str	w0, [sp, 5072]
	b	.L31
.L39:
	.loc 1 84 31
	str	wzr, [sp, 5072]
	.loc 1 85 30
	ldr	w0, [sp, 5076]
	add	w0, w0, 1
	str	w0, [sp, 5076]
.L31:
	.loc 1 78 37 discriminator 2
	ldr	w0, [sp, 5064]
	add	w0, w0, 1
	str	w0, [sp, 5064]
.L30:
	.loc 1 78 31 discriminator 1
	ldr	s0, [sp, 5064]
	scvtf	s0, s0
	.loc 1 78 17 discriminator 1
	ldr	s1, [sp, 36]
	fcmpe	s1, s0
	bgt	.L34
	.loc 1 77 33 discriminator 2
	ldr	w0, [sp, 5068]
	add	w0, w0, 1
	str	w0, [sp, 5068]
.L29:
	.loc 1 77 27 discriminator 1
	ldr	s0, [sp, 5068]
	scvtf	s0, s0
	.loc 1 77 13 discriminator 1
	ldr	s1, [sp, 36]
	fcmpe	s1, s0
	bgt	.L35
	.loc 1 90 35 discriminator 2
	ldr	w1, [sp, 5080]
	ldr	w0, [sp, 5084]
	add	w0, w1, w0
	.loc 1 90 25 discriminator 2
	scvtf	d0, w0
	fmov	d1, d0
	fmov	d0, -1.0e+0
	bl	pow
	fmov	d8, d0
	.loc 1 90 42 discriminator 2
	ldr	s1, [sp, 36]
	fmov	s0, 1.0e+0
	fsub	s0, s1, s0
	add	x0, sp, 2560
	bl	determinant
	fcvt	d0, s0
	.loc 1 90 40 discriminator 2
	fmul	d0, d8, d0
	fcvt	s0, d0
	.loc 1 90 23 discriminator 2
	ldrsw	x2, [sp, 5084]
	ldrsw	x1, [sp, 5080]
	mov	x0, x1
	lsl	x0, x0, 1
	add	x0, x0, x1
	lsl	x0, x0, 3
	add	x0, x0, x1
	add	x0, x0, x2
	lsl	x0, x0, 2
	add	x1, sp, 56
	str	s0, [x1, x0]
	.loc 1 74 29 discriminator 2
	ldr	w0, [sp, 5084]
	add	w0, w0, 1
	str	w0, [sp, 5084]
.L28:
	.loc 1 74 23 discriminator 1
	ldr	s0, [sp, 5084]
	scvtf	s0, s0
	.loc 1 74 9 discriminator 1
	ldr	s1, [sp, 36]
	fcmpe	s1, s0
	bgt	.L36
	.loc 1 73 25 discriminator 2
	ldr	w0, [sp, 5080]
	add	w0, w0, 1
	str	w0, [sp, 5080]
.L27:
	.loc 1 73 19 discriminator 1
	ldr	s0, [sp, 5080]
	scvtf	s0, s0
	.loc 1 73 5 discriminator 1
	ldr	s1, [sp, 36]
	fcmpe	s1, s0
	bgt	.L37
	.loc 1 93 5
	add	x0, sp, 56
	ldr	s0, [sp, 36]
	mov	x1, x0
	ldr	x0, [sp, 40]
	bl	transpose
	.loc 1 94 1
	nop
	ldp	x29, x30, [sp]
	ldr	d8, [sp, 16]
	mov	x12, 5088
	add	sp, sp, x12
	.cfi_restore 72
	.cfi_restore 29
	.cfi_restore 30
	.cfi_def_cfa_offset 0
	ret
	.cfi_endproc
.LFE4:
	.size	cofactor, .-cofactor
	.section	.rodata
	.align	3
.LC1:
	.string	"\n\n\nThe inverse of matrix is : "
	.align	3
.LC2:
	.string	"\t%f"
	.text
	.align	2
	.global	transpose
	.type	transpose, %function
transpose:
.LFB5:
	.loc 1 97 63
	.cfi_startproc
	mov	x12, 5072
	sub	sp, sp, x12
	.cfi_def_cfa_offset 5072
	stp	x29, x30, [sp]
	.cfi_offset 29, -5072
	.cfi_offset 30, -5064
	mov	x29, sp
	str	x0, [sp, 40]
	str	x1, [sp, 32]
	str	s0, [sp, 28]
	.loc 1 101 12
	str	wzr, [sp, 5068]
	.loc 1 101 5
	b	.L41
.L44:
	.loc 1 102 16
	str	wzr, [sp, 5064]
	.loc 1 102 9
	b	.L42
.L43:
	.loc 1 103 26 discriminator 3
	ldrsw	x1, [sp, 5064]
	mov	x0, x1
	lsl	x0, x0, 1
	add	x0, x0, x1
	lsl	x0, x0, 3
	add	x0, x0, x1
	lsl	x0, x0, 2
	mov	x1, x0
	ldr	x0, [sp, 32]
	add	x0, x0, x1
	.loc 1 103 29 discriminator 3
	ldrsw	x1, [sp, 5068]
	ldr	s0, [x0, x1, lsl 2]
	.loc 1 103 21 discriminator 3
	ldrsw	x2, [sp, 5064]
	ldrsw	x1, [sp, 5068]
	mov	x0, x1
	lsl	x0, x0, 1
	add	x0, x0, x1
	lsl	x0, x0, 3
	add	x0, x0, x1
	add	x0, x0, x2
	lsl	x0, x0, 2
	add	x1, sp, 2560
	str	s0, [x1, x0]
	.loc 1 102 29 discriminator 3
	ldr	w0, [sp, 5064]
	add	w0, w0, 1
	str	w0, [sp, 5064]
.L42:
	.loc 1 102 23 discriminator 1
	ldr	s0, [sp, 5064]
	scvtf	s0, s0
	.loc 1 102 9 discriminator 1
	ldr	s1, [sp, 28]
	fcmpe	s1, s0
	bgt	.L43
	.loc 1 101 25 discriminator 2
	ldr	w0, [sp, 5068]
	add	w0, w0, 1
	str	w0, [sp, 5068]
.L41:
	.loc 1 101 19 discriminator 1
	ldr	s0, [sp, 5068]
	scvtf	s0, s0
	.loc 1 101 5 discriminator 1
	ldr	s1, [sp, 28]
	fcmpe	s1, s0
	bgt	.L44
	.loc 1 106 9
	ldr	s0, [sp, 28]
	ldr	x0, [sp, 40]
	bl	determinant
	str	s0, [sp, 5060]
	.loc 1 107 12
	str	wzr, [sp, 5068]
	.loc 1 107 5
	b	.L45
.L48:
	.loc 1 108 16
	str	wzr, [sp, 5064]
	.loc 1 108 9
	b	.L46
.L47:
	.loc 1 109 33 discriminator 3
	ldrsw	x2, [sp, 5064]
	ldrsw	x1, [sp, 5068]
	mov	x0, x1
	lsl	x0, x0, 1
	add	x0, x0, x1
	lsl	x0, x0, 3
	add	x0, x0, x1
	add	x0, x0, x2
	lsl	x0, x0, 2
	add	x1, sp, 2560
	ldr	s1, [x1, x0]
	.loc 1 109 37 discriminator 3
	ldr	s0, [sp, 5060]
	fdiv	s0, s1, s0
	.loc 1 109 27 discriminator 3
	ldrsw	x2, [sp, 5064]
	ldrsw	x1, [sp, 5068]
	mov	x0, x1
	lsl	x0, x0, 1
	add	x0, x0, x1
	lsl	x0, x0, 3
	add	x0, x0, x1
	add	x0, x0, x2
	lsl	x0, x0, 2
	add	x1, sp, 56
	str	s0, [x1, x0]
	.loc 1 108 29 discriminator 3
	ldr	w0, [sp, 5064]
	add	w0, w0, 1
	str	w0, [sp, 5064]
.L46:
	.loc 1 108 23 discriminator 1
	ldr	s0, [sp, 5064]
	scvtf	s0, s0
	.loc 1 108 9 discriminator 1
	ldr	s1, [sp, 28]
	fcmpe	s1, s0
	bgt	.L47
	.loc 1 107 25 discriminator 2
	ldr	w0, [sp, 5068]
	add	w0, w0, 1
	str	w0, [sp, 5068]
.L45:
	.loc 1 107 19 discriminator 1
	ldr	s0, [sp, 5068]
	scvtf	s0, s0
	.loc 1 107 5 discriminator 1
	ldr	s1, [sp, 28]
	fcmpe	s1, s0
	bgt	.L48
	.loc 1 112 5
	adrp	x0, .LC1
	add	x0, x0, :lo12:.LC1
	bl	puts
	.loc 1 114 12
	str	wzr, [sp, 5068]
	.loc 1 114 5
	b	.L49
.L52:
	.loc 1 115 16
	str	wzr, [sp, 5064]
	.loc 1 115 9
	b	.L50
.L51:
	.loc 1 116 38 discriminator 3
	ldrsw	x2, [sp, 5064]
	ldrsw	x1, [sp, 5068]
	mov	x0, x1
	lsl	x0, x0, 1
	add	x0, x0, x1
	lsl	x0, x0, 3
	add	x0, x0, x1
	add	x0, x0, x2
	lsl	x0, x0, 2
	add	x1, sp, 56
	ldr	s0, [x1, x0]
	.loc 1 116 13 discriminator 3
	fcvt	d0, s0
	adrp	x0, .LC2
	add	x0, x0, :lo12:.LC2
	bl	printf
	.loc 1 115 29 discriminator 3
	ldr	w0, [sp, 5064]
	add	w0, w0, 1
	str	w0, [sp, 5064]
.L50:
	.loc 1 115 23 discriminator 1
	ldr	s0, [sp, 5064]
	scvtf	s0, s0
	.loc 1 115 9 discriminator 1
	ldr	s1, [sp, 28]
	fcmpe	s1, s0
	bgt	.L51
	.loc 1 118 9 discriminator 2
	mov	w0, 10
	bl	putchar
	.loc 1 114 25 discriminator 2
	ldr	w0, [sp, 5068]
	add	w0, w0, 1
	str	w0, [sp, 5068]
.L49:
	.loc 1 114 19 discriminator 1
	ldr	s0, [sp, 5068]
	scvtf	s0, s0
	.loc 1 114 5 discriminator 1
	ldr	s1, [sp, 28]
	fcmpe	s1, s0
	bgt	.L52
	.loc 1 120 1
	nop
	nop
	ldp	x29, x30, [sp]
	mov	x12, 5072
	add	sp, sp, x12
	.cfi_restore 29
	.cfi_restore 30
	.cfi_def_cfa_offset 0
	ret
	.cfi_endproc
.LFE5:
	.size	transpose, .-transpose
.Letext0:
	.file 2 "/usr/local/lib/gcc/aarch64-unknown-linux-gnu/9.2.0/include/stddef.h"
	.file 3 "/usr/include/bits/types.h"
	.file 4 "/usr/include/libio.h"
	.file 5 "/usr/include/stdio.h"
	.file 6 "/usr/include/bits/sys_errlist.h"
	.file 7 "/usr/include/math.h"
	.file 8 "/usr/include/time.h"
	.section	.note.GNU-stack,"",@progbits
